(dp0
S'test'
p1
(lp2
F0.6077898550724637
aF0.6283816425120773
aF0.603743961352657
aF0.5815217391304348
aF0.6263285024154589
aF0.6242753623188406
aF0.601207729468599
aF0.5821256038647343
aF0.5811594202898551
aF0.578743961352657
aF0.6125603864734299
aF0.5795893719806763
aF0.5817632850241546
aF0.5727053140096618
aF0.591243961352657
aF0.6296497584541063
aF0.5740338164251207
aF0.6069444444444444
aF0.5922101449275362
aF0.5872584541062802
aF0.5834541062801932
aF0.5726449275362319
aF0.5763888888888888
aF0.5886473429951691
aF0.6274758454106281
aF0.5742753623188406
aF0.5795289855072464
aF0.5768115942028985
aF0.6217391304347826
aF0.5717995169082125
aF0.5734903381642512
aF0.6362922705314009
aF0.5805555555555556
aF0.5754830917874396
aF0.5842391304347826
aF0.577475845410628
aF0.575
aF0.626147342995169
aF0.5941425120772947
aF0.5755434782608696
aF0.5780797101449275
aF0.5779589371980677
aF0.5780193236714976
aF0.5948067632850241
aF0.5753623188405798
aF0.5841183574879227
aF0.5823067632850242
aF0.5746376811594203
aF0.5816425120772947
aF0.586171497584541
aF0.5715579710144928
aF0.5806763285024155
aF0.5791666666666667
aF0.5983091787439614
aF0.5826690821256039
aF0.5893719806763285
aF0.5821256038647343
aF0.5737922705314009
aF0.5732487922705314
aF0.5809178743961353
aF0.5779589371980677
aF0.5831521739130435
aF0.5821256038647343
aF0.576328502415459
aF0.6155797101449275
aF0.5820048309178744
aF0.5821256038647343
aF0.577536231884058
aF0.5720410628019323
aF0.5817632850241546
aF0.5788043478260869
aF0.5809178743961353
aF0.5736111111111111
aF0.5826086956521739
aF0.5773550724637682
aF0.5794082125603864
aF0.6026570048309179
aF0.5756642512077295
aF0.6224033816425121
aF0.6248792270531401
aF0.6272342995169082
aF0.5826086956521739
aF0.5778381642512077
aF0.5772946859903382
aF0.5801328502415459
aF0.6317028985507246
aF0.5743961352657004
aF0.581280193236715
aF0.5783212560386474
aF0.5818840579710145
aF0.5786835748792271
aF0.5701086956521739
aF0.5719806763285025
aF0.5819444444444445
aF0.5796497584541063
aF0.5904589371980676
aF0.6107487922705314
aF0.5796497584541063
aF0.5871980676328502
aF0.6097222222222223
aF0.5830917874396135
aF0.5779589371980677
aF0.576268115942029
aF0.6168478260869565
aF0.5879227053140097
aF0.5748792270531401
aF0.6118357487922705
aF0.5785628019323672
aF0.5754830917874396
aF0.5807367149758454
aF0.5995772946859903
aF0.5868357487922705
aF0.6281400966183575
aF0.6072463768115942
aF0.5964975845410628
aF0.5826690821256039
aF0.5887077294685991
aF0.5928140096618357
aF0.5733695652173914
aF0.5710144927536231
aF0.6007246376811595
aF0.5852053140096618
aF0.5802536231884058
aF0.5853260869565218
aF0.586231884057971
aF0.6291062801932367
aF0.5877415458937199
aF0.5748792270531401
aF0.5782004830917874
aF0.5876207729468599
aF0.626147342995169
aF0.5945652173913043
aF0.5768719806763285
aF0.5746980676328503
aF0.5817028985507247
aF0.5921497584541063
aF0.611171497584541
aF0.5728864734299517
aF0.5865338164251208
aF0.6256642512077295
aF0.5759661835748793
aF0.581340579710145
aF0.577415458937198
aF0.6164251207729469
aF0.5799516908212561
aF0.5983091787439614
aF0.5839371980676329
aF0.6147946859903382
aF0.5983695652173913
aF0.6358091787439614
aF0.5886473429951691
aF0.5853260869565218
aF0.6120169082125604
aF0.6225845410628019
aF0.5923309178743962
aF0.5797705314009662
aF0.5796497584541063
aF0.5753623188405798
aF0.596256038647343
aF0.5764492753623188
aF0.5843599033816426
aF0.5743961352657004
aF0.6009057971014493
aF0.5996376811594203
aF0.6242753623188406
aF0.6256642512077295
aF0.6293478260869565
aF0.5823671497584542
aF0.5735507246376812
aF0.5818236714975845
aF0.5852657004830918
aF0.5784420289855072
aF0.576328502415459
aF0.6305555555555555
aF0.621256038647343
aF0.618840579710145
aF0.6254227053140097
aF0.5795893719806763
aF0.5897946859903381
aF0.5740942028985507
aF0.5793478260869566
aF0.6233695652173913
aF0.5801932367149758
aF0.6330314009661836
aF0.572403381642512
aF0.6303743961352657
aF0.5929347826086957
aF0.5886473429951691
aF0.6209541062801932
aF0.5885869565217391
aF0.597463768115942
aF0.5739734299516909
aF0.5966787439613527
aF0.586352657004831
aF0.5746376811594203
aF0.5914855072463768
aF0.5734903381642512
aF0.5771739130434783
aF0.5768719806763285
aF0.5804347826086956
asS'train'
p3
(lp4
F0.6123188405797102
aF0.623731884057971
aF0.6018719806763285
aF0.5859903381642512
aF0.6289251207729468
aF0.6222826086956522
aF0.6036835748792271
aF0.5836352657004831
aF0.5891304347826087
aF0.5823671497584542
aF0.621256038647343
aF0.5875
aF0.5895531400966184
aF0.5761473429951691
aF0.5933574879227053
aF0.6302536231884058
aF0.5745169082125604
aF0.6039855072463768
aF0.5878623188405797
aF0.589975845410628
aF0.5871980676328502
aF0.5781400966183575
aF0.5764492753623188
aF0.5926932367149759
aF0.6280797101449276
aF0.5795289855072464
aF0.5806159420289855
aF0.5840579710144927
aF0.6144323671497585
aF0.5802536231884058
aF0.5741545893719807
aF0.6322463768115942
aF0.5809782608695652
aF0.5811594202898551
aF0.5849033816425121
aF0.5823671497584542
aF0.5797705314009662
aF0.6269927536231884
aF0.5921497584541063
aF0.5809178743961353
aF0.5772946859903382
aF0.5852053140096618
aF0.5819444444444445
aF0.5943236714975846
aF0.5823067632850242
aF0.5861111111111111
aF0.586231884057971
aF0.5818840579710145
aF0.5856884057971015
aF0.5870169082125604
aF0.5748792270531401
aF0.5870169082125604
aF0.5842995169082126
aF0.5990338164251208
aF0.586171497584541
aF0.5904589371980676
aF0.5804951690821256
aF0.5832729468599034
aF0.5748188405797101
aF0.5832729468599034
aF0.5878019323671497
aF0.5855072463768116
aF0.5859903381642512
aF0.5778985507246377
aF0.618780193236715
aF0.5842391304347826
aF0.5816425120772947
aF0.5842995169082126
aF0.5756642512077295
aF0.5803140096618358
aF0.5814613526570048
aF0.5849033816425121
aF0.5790458937198067
aF0.5868961352657005
aF0.5782608695652174
aF0.5798309178743961
aF0.5995772946859903
aF0.5729468599033817
aF0.623792270531401
aF0.6252415458937198
aF0.6257246376811594
aF0.5882246376811594
aF0.586292270531401
aF0.582548309178744
aF0.5818840579710145
aF0.6295893719806763
aF0.5760869565217391
aF0.5849033816425121
aF0.5810990338164251
aF0.5819444444444445
aF0.5749396135265701
aF0.5721014492753623
aF0.5699879227053141
aF0.5810386473429952
aF0.5835144927536232
aF0.5918478260869565
aF0.6097222222222223
aF0.5845410628019324
aF0.5859903381642512
aF0.6123188405797102
aF0.5828502415458937
aF0.5815821256038647
aF0.5807971014492753
aF0.6165458937198067
aF0.5917874396135265
aF0.5742753623188406
aF0.6033212560386474
aF0.5783212560386474
aF0.5748188405797101
aF0.5785628019323672
aF0.6016304347826087
aF0.5907608695652173
aF0.6285024154589371
aF0.6056763285024155
aF0.5991545893719806
aF0.5855676328502415
aF0.5884057971014492
aF0.5883454106280194
aF0.5798309178743961
aF0.5782608695652174
aF0.6038647342995169
aF0.5865338164251208
aF0.5832125603864734
aF0.5878623188405797
aF0.5835144927536232
aF0.6281400966183575
aF0.5833937198067632
aF0.5805555555555556
aF0.5829106280193237
aF0.5888285024154589
aF0.6258454106280193
aF0.591243961352657
aF0.5820652173913043
aF0.5766908212560387
aF0.586352657004831
aF0.5926328502415459
aF0.6030797101449276
aF0.5741545893719807
aF0.5886473429951691
aF0.6255434782608695
aF0.577415458937198
aF0.5817028985507247
aF0.5828502415458937
aF0.6156400966183575
aF0.5775966183574879
aF0.5942632850241546
aF0.5839975845410628
aF0.6080917874396136
aF0.5902777777777778
aF0.6308574879227054
aF0.5888888888888889
aF0.5865942028985507
aF0.5989130434782609
aF0.6169082125603865
aF0.5910024154589372
aF0.5791062801932367
aF0.5826086956521739
aF0.5752415458937198
aF0.5966787439613527
aF0.5831521739130435
aF0.5878019323671497
aF0.5719202898550725
aF0.5989130434782609
aF0.5989734299516908
aF0.6253623188405797
aF0.623852657004831
aF0.6229468599033816
aF0.5819444444444445
aF0.5748188405797101
aF0.577536231884058
aF0.5847222222222223
aF0.5765096618357488
aF0.5769323671497585
aF0.6233695652173913
aF0.6216787439613527
aF0.6093599033816425
aF0.6255434782608695
aF0.5775966183574879
aF0.5857487922705314
aF0.5776570048309179
aF0.5773550724637682
aF0.6234299516908213
aF0.5805555555555556
aF0.6344806763285025
aF0.5745169082125604
aF0.6303743961352657
aF0.5889492753623189
aF0.5893115942028986
aF0.6159420289855072
aF0.5892512077294686
aF0.591183574879227
aF0.5805555555555556
aF0.5984299516908212
aF0.5884057971014492
aF0.577415458937198
aF0.5858695652173913
aF0.5745169082125604
aF0.5781400966183575
aF0.5758454106280193
aF0.5839371980676329
as.