(dp0
S'features'
p1
(lp2
I29
aI9
aI19
asS'results'
p3
(lp4
((lp5
I0
acnumpy.core.multiarray
scalar
p6
(cnumpy
dtype
p7
(S'f8'
p8
I0
I1
tp9
Rp10
(I3
S'<'
p11
NNNI-1
I-1
I0
tp12
bS'\xf5.\xe3(\xdeP\xe5?'
p13
tp14
Rp15
tp16
a((lp17
I1
ag6
(g10
S'T"\xc4\xf1\x9b1\xe5?'
p18
tp19
Rp20
tp21
a((lp22
I2
ag6
(g10
S"\x085\xe8\x00'\x8d\xe5?"
p23
tp24
Rp25
tp26
a((lp27
I3
ag6
(g10
S'\xa8A\x078i\xac\xe5?'
p28
tp29
Rp30
tp31
a((lp32
I4
ag6
(g10
S'x.\xce\xa1-\xaa\xe5?'
p33
tp34
Rp35
tp36
a((lp37
I5
ag6
(g10
S'K\xb4H6\x1e\x13\xe6?'
p38
tp39
Rp40
tp41
a((lp42
I6
ag6
(g10
S'\xb4H6\x1e\x136\xe5?'
p43
tp44
Rp45
tp46
a((lp47
I7
ag6
(g10
S'8H!\x97b\x8f\xe5?'
p48
tp49
Rp50
tp51
a((lp52
I8
ag6
(g10
S'\xd8T@\xce\xa4\xae\xe5?'
p53
tp54
Rp55
tp56
a((lp57
I9
ag6
(g10
S'\xb5{\xc7\x81\xccY\xe5?'
p58
tp59
Rp60
tp61
a((lp62
I10
ag6
(g10
S'G\xe8\x03\xa88\x84\xe5?'
p63
tp64
Rp65
tp66
a((lp67
I11
ag6
(g10
S'\xac\xda\xbab\x95\x17\xe6?'
p68
tp69
Rp70
tp71
a((lp72
I12
ag6
(g10
S'c\x8f\x15\x9f\xb8\x02\xe5?'
p73
tp74
Rp75
tp76
a((lp77
I13
ag6
(g10
S'u\x95\x1aw\x01?\xe5?'
p78
tp79
Rp80
tp81
a((lp82
I14
ag6
(g10
S'`)\xf3\xd7E\xbb\xe4?'
p83
tp84
Rp85
tp86
a((lp87
I15
ag6
(g10
S'\x87\x9b\x1fOJ{\xe5?'
p88
tp89
Rp90
tp91
a((lp92
I16
ag6
(g10
S'\xd9\x90T4\xca\xf6\xe3?'
p93
tp94
Rp95
tp96
a((lp97
I17
ag6
(g10
S'\x845\xfd\x87\xd73\xe5?'
p98
tp99
Rp100
tp101
a((lp102
I18
ag6
(g10
S'\x0fp\xd2X\xeb\x87\xe4?'
p103
tp104
Rp105
tp106
a((lp107
I19
ag6
(g10
S't\x95\x1aw\x01?\xe5?'
p108
tp109
Rp110
tp111
a((lp112
I20
ag6
(g10
S'7H!\x97b\x8f\xe5?'
p113
tp114
Rp115
tp116
a((lp117
I21
ag6
(g10
S'\x80i\xb8\xf9\xf1\xa4\xe4?'
p118
tp119
Rp120
tp121
a((lp122
I22
ag6
(g10
S'\xb7\xaeX\xe5\x85}\xe5?'
p123
tp124
Rp125
tp126
a((lp127
I23
ag6
(g10
S'\xe1\xc2\xbb\x89"\xcd\xe4?'
p128
tp129
Rp130
tp131
a((lp132
I24
ag6
(g10
S'\xa8A\x078i\xac\xe5?'
p133
tp134
Rp135
tp136
a((lp137
I25
ag6
(g10
S'H\x1b\x95\x0b\xf2\xa7\xe5?'
p138
tp139
Rp140
tp141
a((lp142
I26
ag6
(g10
S'X\xee\x08\x80\x81\xc0\xe5?'
p143
tp144
Rp145
tp146
a((lp147
I27
ag6
(g10
S'5\x15\x903\xa9k\xe5?'
p148
tp149
Rp150
tp151
a((lp152
I28
ag6
(g10
S'\x92x@\xd4\xa6\x05\xe3?'
p153
tp154
Rp155
tp156
a((lp157
I29
ag6
(g10
S'\xeblK\xab\xc53\xe2?'
p158
tp159
Rp160
tp161
a((lp162
I29
aI0
ag6
(g10
S'\xef\x05\xff\xd5\xf1\x9e\xe2?'
p163
tp164
Rp165
tp166
a((lp167
I29
aI1
ag6
(g10
S'\xa0\xe5\x91\x81\xc3\xd6\xe2?'
p168
tp169
Rp170
tp171
a((lp172
I29
aI2
ag6
(g10
S'\xec\x9f\xdc\x0e\x7fW\xe2?'
p173
tp174
Rp175
tp176
a((lp177
I29
aI3
ag6
(g10
S'=Y\xfd\x8d\xd9\x8a\xe2?'
p178
tp179
Rp180
tp181
a((lp182
I29
aI4
ag6
(g10
S'\x8cyj\xe2\x07S\xe2?'
p183
tp184
Rp185
tp186
a((lp187
I29
aI5
ag6
(g10
S'yse\n\xbf\x16\xe2?'
p188
tp189
Rp190
tp191
a((lp192
I29
aI6
ag6
(g10
S'\xfb?\xbf\x1fUL\xe2?'
p193
tp194
Rp195
tp196
a((lp197
I29
aI7
ag6
(g10
S'\x18\x1abz\x8e\xee\xe1?'
p198
tp199
Rp200
tp201
a((lp202
I29
aI8
ag6
(g10
S'\xfdrP\x83\x0ep\xe2?'
p203
tp204
Rp205
tp206
a((lp207
I29
aI9
ag6
(g10
S'%T"\xc4\xf1\x9b\xe1?'
p208
tp209
Rp210
tp211
a((lp212
I29
aI10
ag6
(g10
S'\xfdrP\x83\x0ep\xe2?'
p213
tp214
Rp215
tp216
a((lp217
I29
aI11
ag6
(g10
S'hm`2v\xda\xe1?'
p218
tp219
Rp220
tp221
a((lp222
I29
aI12
ag6
(g10
S'\x0c\x133\x94\xe4d\xe2?'
p223
tp224
Rp225
tp226
a((lp227
I29
aI13
ag6
(g10
S'\xac\xec\xc0gm`\xe2?'
p228
tp229
Rp230
tp231
a((lp232
I29
aI14
ag6
(g10
S'\xec\x9f\xdc\x0e\x7fW\xe2?'
p233
tp234
Rp235
tp236
a((lp237
I29
aI15
ag6
(g10
S'\x0eF\xc4\xf7\x9d\x88\xe2?'
p238
tp239
Rp240
tp241
a((lp242
I29
aI16
ag6
(g10
S'\xbc\x8c\xa3xCU\xe2?'
p243
tp244
Rp245
tp246
a((lp247
I29
aI17
ag6
(g10
S'<&l* g\xe2?'
p248
tp249
Rp250
tp251
a((lp252
I29
aI18
ag6
(g10
S'\xbc\x8c\xa3xCU\xe2?'
p253
tp254
Rp255
tp256
a((lp257
I29
aI19
ag6
(g10
S'\xdb\xcch\x9a\xef>\xe2?'
p258
tp259
Rp260
tp261
a((lp262
I29
aI20
ag6
(g10
S'\xbc\x8c\xa3xCU\xe2?'
p263
tp264
Rp265
tp266
a((lp267
I29
aI21
ag6
(g10
S'\x9f\xb2\x00\x1e\n\xb3\xe2?'
p268
tp269
Rp270
tp271
a((lp272
I29
aI22
ag6
(g10
S'\xdb\xcch\x9a\xef>\xe2?'
p273
tp274
Rp275
tp276
a((lp277
I29
aI23
ag6
(g10
S'<&l* g\xe2?'
p278
tp279
Rp280
tp281
a((lp282
I29
aI24
ag6
(g10
S'=&l* g\xe2?'
p283
tp284
Rp285
tp286
a((lp287
I29
aI25
ag6
(g10
S'\xeblK\xab\xc53\xe2?'
p288
tp289
Rp290
tp291
a((lp292
I29
aI26
ag6
(g10
S'\n\xad\x10\xcdq\x1d\xe2?'
p293
tp294
Rp295
tp296
a((lp297
I29
aI27
ag6
(g10
S'x@\xd4\xa6\x05\xf3\xe1?'
p298
tp299
Rp300
tp301
a((lp302
I29
aI28
ag6
(g10
S'\x0c\xe0\xa10+A\xe2?'
p303
tp304
Rp305
tp306
a((lp307
I29
aI9
aI0
ag6
(g10
S'\x17\xe7\xd0\x16\xd5\xca\xe1?'
p308
tp309
Rp310
tp311
a((lp312
I29
aI9
aI1
ag6
(g10
S'\x98\x80\x99\xc8\xb1\xdc\xe1?'
p313
tp314
Rp315
tp316
a((lp317
I29
aI9
aI2
ag6
(g10
S'u\xa7 |\xd9\x87\xe1?'
p318
tp319
Rp320
tp321
a((lp322
I29
aI9
aI3
ag6
(g10
S'sA\xfe\xb4f@\xe1?'
p323
tp324
Rp325
tp326
a((lp327
I29
aI9
aI4
ag6
(g10
S'tt\x8f\x18 d\xe1?'
p328
tp329
Rp330
tp331
a((lp332
I29
aI9
aI5
ag6
(g10
S'\xd4\x9a\x01E\x97h\xe1?'
p333
tp334
Rp335
tp336
a((lp337
I29
aI9
aI6
ag6
(g10
S'\xd4\x9a\x01E\x97h\xe1?'
p338
tp339
Rp340
tp341
a((lp342
I29
aI9
aI7
ag6
(g10
S'\x84\x14r)\xf6X\xe1?'
p343
tp344
Rp345
tp346
a((lp347
I29
aI9
aI8
ag6
(g10
S'Y\x00\x0f\x85Y\t\xe2?'
p348
tp349
Rp350
tp351
a((lp352
I29
aI9
aI10
ag6
(g10
S'w\rCCL\xcf\xe1?'
p353
tp354
Rp355
tp356
a((lp357
I29
aI9
aI11
ag6
(g10
S'\xb3\xf4\x19\\x7\xe1?'
p358
tp359
Rp360
tp361
a((lp362
I29
aI9
aI12
ag6
(g10
S'\xc8\x93\xd2^\xed\xde\xe1?'
p363
tp364
Rp365
tp366
a((lp367
I29
aI9
aI13
ag6
(g10
S'E\x94\xe7\xe5\x9d\x85\xe1?'
p368
tp369
Rp370
tp371
a((lp372
I29
aI9
aI14
ag6
(g10
S'\xe4:\xe4Um]\xe1?'
p373
tp374
Rp375
tp376
a((lp377
I29
aI9
aI15
ag6
(g10
S'e\x07>k\x03\x93\xe1?'
p378
tp379
Rp380
tp381
a((lp382
I29
aI9
aI16
ag6
(g10
S'#\xee\xff\xfc~T\xe1?'
p383
tp384
Rp385
tp386
a((lp387
I29
aI9
aI17
ag6
(g10
S'\x9b\xe6\xbb\x8f$$\xe2?'
p388
tp389
Rp390
tp391
a((lp392
I29
aI9
aI18
ag6
(g10
S"7'\x968\x81\xb4\xe1?"
p393
tp394
Rp395
tp396
a((lp397
I29
aI9
aI19
ag6
(g10
S'\xa0\xee\x14\x84/\xfb\xe0?'
p398
tp399
Rp400
tp401
a((lp402
I29
aI9
aI20
ag6
(g10
S"'\x87\xb3'\xab\xbf\xe1?"
p403
tp404
Rp405
tp406
a((lp407
I29
aI9
aI21
ag6
(g10
S'D\x94\xe7\xe5\x9d\x85\xe1?'
p408
tp409
Rp410
tp411
a((lp412
I29
aI9
aI22
ag6
(g10
S'\xe2\x07S\xf2\xb39\xe1?'
p413
tp414
Rp415
tp416
a((lp417
I29
aI9
aI23
ag6
(g10
S'\xd3gp\xe1\xddD\xe1?'
p418
tp419
Rp420
tp421
a((lp422
I29
aI9
aI24
ag6
(g10
S'\xc1ak\t\x95\x08\xe1?'
p423
tp424
Rp425
tp426
a((lp427
I29
aI9
aI25
ag6
(g10
S'\x01H\x18\x14`#\xe1?'
p428
tp429
Rp430
tp431
a((lp432
I29
aI9
aI26
ag6
(g10
S'\x13\x1b\x8c\x88\xef;\xe1?'
p433
tp434
Rp435
tp436
a((lp437
I29
aI9
aI27
ag6
(g10
S'%T"\xc4\xf1\x9b\xe1?'
p438
tp439
Rp440
tp441
a((lp442
I29
aI9
aI28
ag6
(g10
S'\xb4Z<#\xeb~\xe1?'
p443
tp444
Rp445
tp446
a((lp447
I29
aI9
aI19
aI0
ag6
(g10
S'c\xa1\x1b\xa4\x90K\xe1?'
p448
tp449
Rp450
tp451
a((lp452
I29
aI9
aI19
aI1
ag6
(g10
S'\x18\x1abz\x8e\xee\xe1?'
p453
tp454
Rp455
tp456
a((lp457
I29
aI9
aI19
aI2
ag6
(g10
S'\x13\x1b\x8c\x88\xef;\xe1?'
p458
tp459
Rp460
tp461
a((lp462
I29
aI9
aI19
aI3
ag6
(g10
S'\xe3\x07S\xf2\xb39\xe1?'
p463
tp464
Rp465
tp466
a((lp467
I29
aI9
aI19
aI4
ag6
(g10
S'\x95\x1aw\x01?\x95\xe1?'
p468
tp469
Rp470
tp471
a((lp472
I29
aI9
aI19
aI5
ag6
(g10
S'%T"\xc4\xf1\x9b\xe1?'
p473
tp474
Rp475
tp476
a((lp477
I29
aI9
aI19
aI6
ag6
(g10
S'\xa9\x86\x9e\xa0\xfa\x18\xe2?'
p478
tp479
Rp480
tp481
a((lp482
I29
aI9
aI19
aI7
ag6
(g10
S'\x89\x13H\x1b\x95\x0b\xe2?'
p483
tp484
Rp485
tp486
a((lp487
I29
aI9
aI19
aI8
ag6
(g10
S'Y\x00\x0f\x85Y\t\xe2?'
p488
tp489
Rp490
tp491
a((lp492
I29
aI9
aI19
aI10
ag6
(g10
S'\xa7 |\xd9\x87\xd1\xe1?'
p493
tp494
Rp495
tp496
a((lp497
I29
aI9
aI19
aI11
ag6
(g10
S'4\xc1sq\x0em\xe1?'
p498
tp499
Rp500
tp501
a((lp502
I29
aI9
aI19
aI12
ag6
(g10
S'\xe99\xbaG\x0c\x10\xe2?'
p503
tp504
Rp505
tp506
a((lp507
I29
aI9
aI19
aI13
ag6
(g10
S'\xb5\x8d\xcd\x86\xa4\xa2\xe1?'
p508
tp509
Rp510
tp511
a((lp512
I29
aI9
aI19
aI14
ag6
(g10
S'u\xda\xb1\xdf\x92\xab\xe1?'
p513
tp514
Rp515
tp516
a((lp517
I29
aI9
aI19
aI15
ag6
(g10
S'\x97M\x08e\xf8\xb8\xe1?'
p518
tp519
Rp520
tp521
a((lp522
I29
aI9
aI19
aI16
ag6
(g10
S'\xa7 |\xd9\x87\xd1\xe1?'
p523
tp524
Rp525
tp526
a((lp527
I29
aI9
aI19
aI17
ag6
(g10
S'G\xfa\t\xad\x10\xcd\xe1?'
p528
tp529
Rp530
tp531
a((lp532
I29
aI9
aI19
aI18
ag6
(g10
S'\xf8\xa6\x0b\xf5(\xe1\xe1?'
p533
tp534
Rp535
tp536
a((lp537
I29
aI9
aI19
aI20
ag6
(g10
S'\x95\x1aw\x01?\x95\xe1?'
p538
tp539
Rp540
tp541
a((lp542
I29
aI9
aI19
aI21
ag6
(g10
S'\xb6\x8d\xcd\x86\xa4\xa2\xe1?'
p543
tp544
Rp545
tp546
a((lp547
I29
aI9
aI19
aI22
ag6
(g10
S"6'\x968\x81\xb4\xe1?"
p548
tp549
Rp550
tp551
a((lp552
I29
aI9
aI19
aI23
ag6
(g10
S'\xf7sz\x91o\xbd\xe1?'
p553
tp554
Rp555
tp556
a((lp557
I29
aI9
aI19
aI24
ag6
(g10
S'\xc8\x93\xd2^\xed\xde\xe1?'
p558
tp559
Rp560
tp561
a((lp562
I29
aI9
aI19
aI25
ag6
(g10
S'\x06\x14]\xa2E\xb2\xe1?'
p563
tp564
Rp565
tp566
a((lp567
I29
aI9
aI19
aI26
ag6
(g10
S'u\xa7 |\xd9\x87\xe1?'
p568
tp569
Rp570
tp571
a((lp572
I29
aI9
aI19
aI27
ag6
(g10
S'$\xee\xff\xfc~T\xe1?'
p573
tp574
Rp575
tp576
a((lp577
I29
aI9
aI19
aI28
ag6
(g10
S'I-\x9b\x10\xca\xf0\xe1?'
p578
tp579
Rp580
tp581
as.